; Function Attrs: mustprogress uwtable
define void @_ZN11WelcomePage17interfaceSelectedEv(ptr noundef nonnull align 8 dereferenceable(112) %0) local_unnamed_addr #0 align 2 personality ptr @__gxx_personality_v0 {
  %2 = alloca %"struct.std::pair", align 8
  %3 = alloca %class.QString, align 8
  call void @_ZN17CaptureFilterEdit17getSelectedFilterEv(ptr dead_on_unwind nonnull writable sret(%"struct.std::pair") align 8 %2)
  %4 = load ptr, ptr %2, align 8
  store ptr %4, ptr %3, align 8
  %5 = getelementptr inbounds i8, ptr %3, i64 8
  %6 = getelementptr inbounds i8, ptr %2, i64 8
  %7 = load ptr, ptr %6, align 8
  store ptr %7, ptr %5, align 8
  %8 = getelementptr inbounds i8, ptr %3, i64 16
  %9 = getelementptr inbounds i8, ptr %2, i64 16
  %10 = load i64, ptr %9, align 8
  store i64 %10, ptr %8, align 8
  %.not.i.i.i = icmp eq ptr %4, null
  br i1 %.not.i.i.i, label %_ZN7QStringC2ERKS_.exit, label %11

11:                                               ; preds = %1
  %12 = atomicrmw add ptr %4, i32 1 seq_cst, align 4
  br label %_ZN7QStringC2ERKS_.exit

_ZN7QStringC2ERKS_.exit:                          ; preds = %1, %11
  %13 = getelementptr inbounds i8, ptr %2, i64 24
  %14 = load i8, ptr %13, align 8
  %15 = and i8 %14, 1
  %.not = icmp eq i8 %15, 0
  %16 = getelementptr inbounds i8, ptr %0, i64 40
  %17 = load ptr, ptr %16, align 8
  %18 = getelementptr inbounds i8, ptr %17, i64 136
  %19 = load ptr, ptr %18, align 8
  br i1 %.not, label %39, label %20

20:                                               ; preds = %_ZN7QStringC2ERKS_.exit
  %21 = invoke noundef ptr @_ZNK9QComboBox8lineEditEv(ptr noundef nonnull align 8 dereferenceable(40) %19)
          to label %22 unwind label %29

22:                                               ; preds = %20
  invoke void @_ZN9QLineEdit5clearEv(ptr noundef nonnull align 8 dereferenceable(40) %21)
          to label %23 unwind label %29

23:                                               ; preds = %22
  %24 = load ptr, ptr %16, align 8
  %25 = getelementptr inbounds i8, ptr %24, i64 136
  %26 = load ptr, ptr %25, align 8
  %27 = getelementptr inbounds i8, ptr %26, i64 40
  %28 = load ptr, ptr %27, align 8
  invoke void @_ZN17CaptureFilterEdit11setConflictEb(ptr noundef nonnull align 8 dereferenceable(280) %28, i1 noundef zeroext true)
          to label %_ZN18CaptureFilterCombo11setConflictEb.exit unwind label %29

29:                                               ; preds = %23, %_ZN18CaptureFilterCombo11setConflictEb.exit, %41, %39, %22, %20
  %30 = landingpad { ptr, i32 }
          cleanup
  %31 = load ptr, ptr %3, align 8
  %.not.i.i.i3 = icmp eq ptr %31, null
  br i1 %.not.i.i.i3, label %_ZN7QStringD2Ev.exit, label %_ZN17QArrayDataPointerIDsE5derefEv.exit.i.i

_ZN17QArrayDataPointerIDsE5derefEv.exit.i.i:      ; preds = %29
  %32 = atomicrmw sub ptr %31, i32 1 seq_cst, align 4
  %.not.i.i = icmp eq i32 %32, 1
  br i1 %.not.i.i, label %33, label %_ZN7QStringD2Ev.exit

33:                                               ; preds = %_ZN17QArrayDataPointerIDsE5derefEv.exit.i.i
  %34 = load ptr, ptr %3, align 8
  call void @_ZN10QArrayData10deallocateEPS_xx(ptr noundef %34, i64 noundef 2, i64 noundef 8) #18
  br label %_ZN7QStringD2Ev.exit

_ZN7QStringD2Ev.exit:                             ; preds = %29, %_ZN17QArrayDataPointerIDsE5derefEv.exit.i.i, %33
  %35 = load ptr, ptr %2, align 8
  %.not.i.i.i.i = icmp eq ptr %35, null
  br i1 %.not.i.i.i.i, label %_ZNSt4pairIK7QStringbED2Ev.exit, label %_ZN17QArrayDataPointerIDsE5derefEv.exit.i.i.i

_ZN17QArrayDataPointerIDsE5derefEv.exit.i.i.i:    ; preds = %_ZN7QStringD2Ev.exit
  %36 = atomicrmw sub ptr %35, i32 1 seq_cst, align 4
  %.not.i.i.i4 = icmp eq i32 %36, 1
  br i1 %.not.i.i.i4, label %37, label %_ZNSt4pairIK7QStringbED2Ev.exit

37:                                               ; preds = %_ZN17QArrayDataPointerIDsE5derefEv.exit.i.i.i
  %38 = load ptr, ptr %2, align 8
  call void @_ZN10QArrayData10deallocateEPS_xx(ptr noundef %38, i64 noundef 2, i64 noundef 8) #18
  br label %_ZNSt4pairIK7QStringbED2Ev.exit

_ZNSt4pairIK7QStringbED2Ev.exit:                  ; preds = %_ZN7QStringD2Ev.exit, %_ZN17QArrayDataPointerIDsE5derefEv.exit.i.i.i, %37
  resume { ptr, i32 } %30

39:                                               ; preds = %_ZN7QStringC2ERKS_.exit
  %40 = invoke noundef ptr @_ZNK9QComboBox8lineEditEv(ptr noundef nonnull align 8 dereferenceable(40) %19)
          to label %41 unwind label %29

41:                                               ; preds = %39
  invoke void @_ZN9QLineEdit7setTextERK7QString(ptr noundef nonnull align 8 dereferenceable(40) %40, ptr noundef nonnull align 8 dereferenceable(24) %3)
          to label %_ZN18CaptureFilterCombo11setConflictEb.exit unwind label %29

_ZN18CaptureFilterCombo11setConflictEb.exit:      ; preds = %23, %41
  invoke void @_ZN11WelcomePage17interfacesChangedEv(ptr noundef nonnull align 8 dereferenceable(112) %0)
          to label %42 unwind label %29

42:                                               ; preds = %_ZN18CaptureFilterCombo11setConflictEb.exit
  %43 = load ptr, ptr %3, align 8
  %.not.i.i.i5 = icmp eq ptr %43, null
  br i1 %.not.i.i.i5, label %_ZN7QStringD2Ev.exit8, label %_ZN17QArrayDataPointerIDsE5derefEv.exit.i.i6

_ZN17QArrayDataPointerIDsE5derefEv.exit.i.i6:     ; preds = %42
  %44 = atomicrmw sub ptr %43, i32 1 seq_cst, align 4
  %.not.i.i7 = icmp eq i32 %44, 1
  br i1 %.not.i.i7, label %45, label %_ZN7QStringD2Ev.exit8

45:                                               ; preds = %_ZN17QArrayDataPointerIDsE5derefEv.exit.i.i6
  %46 = load ptr, ptr %3, align 8
  call void @_ZN10QArrayData10deallocateEPS_xx(ptr noundef %46, i64 noundef 2, i64 noundef 8) #18
  br label %_ZN7QStringD2Ev.exit8

_ZN7QStringD2Ev.exit8:                            ; preds = %42, %_ZN17QArrayDataPointerIDsE5derefEv.exit.i.i6, %45
  %47 = load ptr, ptr %2, align 8
  %.not.i.i.i.i9 = icmp eq ptr %47, null
  br i1 %.not.i.i.i.i9, label %_ZNSt4pairIK7QStringbED2Ev.exit12, label %_ZN17QArrayDataPointerIDsE5derefEv.exit.i.i.i10

_ZN17QArrayDataPointerIDsE5derefEv.exit.i.i.i10:  ; preds = %_ZN7QStringD2Ev.exit8
  %48 = atomicrmw sub ptr %47, i32 1 seq_cst, align 4
  %.not.i.i.i11 = icmp eq i32 %48, 1
  br i1 %.not.i.i.i11, label %49, label %_ZNSt4pairIK7QStringbED2Ev.exit12

49:                                               ; preds = %_ZN17QArrayDataPointerIDsE5derefEv.exit.i.i.i10
  %50 = load ptr, ptr %2, align 8
  call void @_ZN10QArrayData10deallocateEPS_xx(ptr noundef %50, i64 noundef 2, i64 noundef 8) #18
  br label %_ZNSt4pairIK7QStringbED2Ev.exit12

_ZNSt4pairIK7QStringbED2Ev.exit12:                ; preds = %_ZN7QStringD2Ev.exit8, %_ZN17QArrayDataPointerIDsE5derefEv.exit.i.i.i10, %49
  ret void
}